target datalayout = "e-m:e-p270:32:32-p271:32:32-p272:64:64-i64:64-i128:128-f80:128-n8:16:32:64-S128"
target triple = "x86_64-pc-linux-gnu"

%struct.darktable_t = type { %struct.dt_codepath_t, i32, i32, ptr, ptr, ptr, ptr, ptr, ptr, ptr, ptr, ptr, ptr, ptr, ptr, ptr, ptr, ptr, ptr, ptr, ptr, ptr, ptr, ptr, ptr, ptr, ptr, ptr, ptr, ptr, [64 x %struct.dt_pthread_mutex_t], %struct.dt_pthread_mutex_t, %struct.dt_pthread_mutex_t, %struct.dt_pthread_mutex_t, %struct.dt_pthread_mutex_t, %struct.dt_pthread_mutex_t, ptr, ptr, ptr, ptr, ptr, ptr, ptr, ptr, ptr, ptr, ptr, ptr, ptr, %struct.dt_lua_state_t, ptr, double, ptr, i32, [47 x i32], i32, i32, ptr, ptr, %struct.dt_sys_resources_t, %struct.dt_backthumb_t, %struct.dt_gimp_t }
%struct.dt_codepath_t = type { i8, [3 x i8] }
%struct.dt_pthread_mutex_t = type { %union.pthread_mutex_t }
%union.pthread_mutex_t = type { %struct.__pthread_mutex_s }
%struct.__pthread_mutex_s = type { i32, i32, i32, i32, i32, i16, i16, %struct.__pthread_internal_list }
%struct.__pthread_internal_list = type { ptr, ptr }
%struct.dt_lua_state_t = type { i32 }
%struct.dt_sys_resources_t = type { i64, i64, ptr, ptr, i32 }
%struct.dt_backthumb_t = type { double, double, i32, i32, i32, i32 }
%struct.dt_gimp_t = type { i32, ptr, ptr, i32, i32 }
%struct.dt_iop_module_t = type { i32, ptr, ptr, ptr, ptr, ptr, ptr, ptr, ptr, ptr, ptr, ptr, ptr, ptr, ptr, ptr, ptr, ptr, ptr, ptr, ptr, ptr, ptr, ptr, ptr, ptr, ptr, ptr, ptr, ptr, ptr, ptr, ptr, ptr, ptr, ptr, ptr, ptr, ptr, ptr, ptr, ptr, ptr, ptr, ptr, ptr, ptr, ptr, ptr, ptr, ptr, ptr, ptr, ptr, ptr, ptr, ptr, [20 x i8], i32, i32, i32, i32, i32, i32, i32, [8 x i8], [4 x float], [4 x float], [4 x float], [4 x float], [4 x float], [4 x float], ptr, %struct.dt_dev_histogram_stats_t, [4 x i32], i32, i32, ptr, i32, i32, ptr, ptr, i32, ptr, %struct.dt_pthread_mutex_t, ptr, ptr, ptr, ptr, %struct.anon, ptr, ptr, ptr, ptr, ptr, ptr, ptr, i32, ptr, ptr, ptr, ptr, ptr, ptr, ptr, i32, ptr, i32, [128 x i8], i32, ptr, ptr, i32, [12 x i8] }
%struct.dt_dev_histogram_stats_t = type { i32, i64, i32, i32 }
%struct.anon = type { %struct.anon.0, %struct.anon.1 }
%struct.anon.0 = type { ptr, ptr }
%struct.anon.1 = type { ptr, i32 }
%struct.dt_iop_rgblevels_gui_data_t = type { %struct.dt_iop_rgblevels_params_t, ptr, ptr, ptr, ptr, ptr, ptr, i32, i32, float, float, float, float, [4 x float], i32, double, double, i32, i32, float, i32, float, ptr, ptr, ptr }
%struct.dt_iop_rgblevels_params_t = type { i32, i32, [3 x [3 x float]] }
%struct.dt_develop_t = type { i32, i32, i32, ptr, double, double, i32, i32, i32, i32, i32, double, i32, i32, i32, ptr, ptr, [8 x i8], %struct.dt_image_t, i32, i32, %struct.dt_pthread_mutex_t, i32, ptr, i32, ptr, i32, ptr, ptr, i32, ptr, ptr, ptr, ptr, i32, i32, ptr, ptr, ptr, ptr, i32, i32, i32, float, float, ptr, i32, %struct.anon.8, %struct.dt_dev_chroma_t, %struct.anon.11, %struct.anon.12, %struct.anon.13, %struct.anon.14, %struct.anon.15, %struct.anon.16, ptr, ptr, %struct.dt_dev_viewport_t, %struct.dt_dev_viewport_t, i32, i32, i32, ptr, [8 x i8] }
%struct.dt_image_t = type { i32, i32, float, float, float, float, float, float, float, [64 x i8], [64 x i8], [128 x i8], [64 x i8], [64 x i8], [64 x i8], [64 x i8], i64, i32, %union.dt_image_correction_data_t, [64 x i8], [64 x i8], [64 x i8], [128 x i8], i32, [256 x i8], i32, i32, i32, i32, i32, i32, i32, i32, i32, i32, float, i32, i32, i32, i32, i32, i32, i64, i64, i64, i64, i32, [12 x i8], %struct.dt_iop_buffer_dsc_t, [9 x float], ptr, i32, i32, %struct.dt_image_raw_parameters_t, %struct.dt_image_geoloc_t, %struct._color_harmony_t, i16, [4 x i16], i32, i32, float, float, [4 x float], [4 x [3 x float]], [4 x float], ptr, ptr, i32, i32, [8 x i8] }
%union.dt_image_correction_data_t = type { %struct.anon.3 }
%struct.anon.3 = type { i32, float, [11 x float], [11 x float], [11 x float], [11 x float], [11 x float] }
%struct.dt_iop_buffer_dsc_t = type { i32, i32, i32, [6 x [6 x i8]], %struct.anon.6, [12 x i8], %struct.anon.7, [4 x float], i32, [12 x i8] }
%struct.anon.6 = type { i16, i16 }
%struct.anon.7 = type { i32, [12 x i8], [4 x float] }
%struct.dt_image_raw_parameters_t = type { i32 }
%struct.dt_image_geoloc_t = type { double, double, double }
%struct._color_harmony_t = type { i32, i32, i32 }
%struct.anon.8 = type { %struct.dt_dev_proxy_exposure_t, ptr, %struct.anon.9, %struct.anon.10 }
%struct.dt_dev_proxy_exposure_t = type { ptr, ptr, ptr, ptr }
%struct.anon.9 = type { ptr, ptr, ptr, ptr, ptr, ptr, ptr, ptr, ptr }
%struct.anon.10 = type { ptr, ptr, ptr, ptr, ptr }
%struct.dt_dev_chroma_t = type { ptr, ptr, [4 x double], [4 x double], [4 x double], i32 }
%struct.anon.11 = type { ptr, ptr, ptr }
%struct.anon.12 = type { ptr, ptr, i32, i32, float, float, i32 }
%struct.anon.13 = type { ptr, ptr, i32, i32, i32, float }
%struct.anon.14 = type { ptr }
%struct.anon.15 = type { ptr, i32 }
%struct.anon.16 = type { ptr, ptr, ptr }
%struct.dt_dev_viewport_t = type { ptr, i32, i32, i32, i32, i32, double, double, double, i32, i32, i32, float, float, float, ptr }
%struct.dt_dev_pixelpipe_t = type { %struct.dt_dev_pixelpipe_cache_t, i32, i64, ptr, i32, i32, float, i32, i32, [12 x i8], %struct.dt_iop_buffer_dsc_t, ptr, ptr, ptr, ptr, i32, i32, i32, i32, ptr, i64, i32, i32, float, float, float, i64, %struct.dt_pthread_mutex_t, %struct.dt_pthread_mutex_t, %struct.dt_pthread_mutex_t, i32, i32, i32, %struct.dt_dev_detail_mask_t, i32, i32, i32, i32, i32, i32, i32, i32, i32, i32, i32, i32, i32, i32, [8 x i8], %struct.dt_image_t, i32, ptr, i32, ptr, ptr, ptr, i32, ptr, i64, [8 x i8] }
%struct.dt_dev_pixelpipe_cache_t = type { i32, i64, i64, ptr, ptr, ptr, ptr, ptr, ptr, i64, i32, i64, i64, i32, i32, i32 }
%struct.dt_dev_detail_mask_t = type { %struct.dt_iop_roi_t, i64, ptr }
%struct.dt_iop_roi_t = type { i32, i32, i32, i32, float }

@darktable = external global %struct.darktable_t, align 8

; Function Attrs: nounwind uwtable
define i32 @button_released(ptr noundef %0, float noundef %1, float noundef %2, i32 noundef %3, i32 noundef %4, float noundef %5) #0 {
  %7 = alloca ptr, align 8
  %8 = alloca float, align 4
  %9 = alloca float, align 4
  %10 = alloca i32, align 4
  %11 = alloca i32, align 4
  %12 = alloca float, align 4
  %13 = alloca i32, align 4
  %14 = alloca ptr, align 8
  store ptr %0, ptr %7, align 8, !tbaa !6
  store float %1, ptr %8, align 4, !tbaa !15
  store float %2, ptr %9, align 4, !tbaa !15
  store i32 %3, ptr %10, align 4, !tbaa !19
  store i32 %4, ptr %11, align 4, !tbaa !19
  store float %5, ptr %12, align 4, !tbaa !15
  call void @llvm.lifetime.start.p0(i64 4, ptr %13) #13
  store i32 0, ptr %13, align 4, !tbaa !19
  call void @llvm.lifetime.start.p0(i64 8, ptr %14) #13
  %15 = load ptr, ptr %7, align 8, !tbaa !6
  %16 = getelementptr inbounds nuw %struct.dt_iop_module_t, ptr %15, i32 0, i32 83
  %17 = load ptr, ptr %16, align 16, !tbaa !21
  store ptr %17, ptr %14, align 8, !tbaa !37
  %18 = load ptr, ptr %14, align 8, !tbaa !37
  %19 = icmp ne ptr %18, null
  br i1 %19, label %20, label %135

20:                                               ; preds = %6
  %21 = load ptr, ptr %14, align 8, !tbaa !37
  %22 = getelementptr inbounds nuw %struct.dt_iop_rgblevels_gui_data_t, ptr %21, i32 0, i32 8
  %23 = load i32, ptr %22, align 4, !tbaa !39
  %24 = icmp ne i32 %23, 0
  br i1 %24, label %25, label %135

25:                                               ; preds = %20
  %26 = load ptr, ptr %7, align 8, !tbaa !6
  %27 = getelementptr inbounds nuw %struct.dt_iop_module_t, ptr %26, i32 0, i32 78
  %28 = load i32, ptr %27, align 16, !tbaa !45
  %29 = icmp ne i32 %28, 0
  br i1 %29, label %30, label %135

30:                                               ; preds = %25
  %31 = load ptr, ptr %14, align 8, !tbaa !37
  %32 = getelementptr inbounds nuw %struct.dt_iop_rgblevels_gui_data_t, ptr %31, i32 0, i32 9
  %33 = load float, ptr %32, align 8, !tbaa !49
  %34 = load ptr, ptr %14, align 8, !tbaa !37
  %35 = getelementptr inbounds nuw %struct.dt_iop_rgblevels_gui_data_t, ptr %34, i32 0, i32 10
  %36 = load float, ptr %35, align 4, !tbaa !47
  %37 = fsub reassoc nsz arcp contract afn float %33, %36
  %38 = call reassoc nsz arcp contract afn float @llvm.fabs.f32(float %37)
  %39 = fcmp reassoc nsz arcp contract afn ogt float %38, 1.000000e+00
  br i1 %39, label %40, label %131

40:                                               ; preds = %30
  %41 = load ptr, ptr %14, align 8, !tbaa !37
  %42 = getelementptr inbounds nuw %struct.dt_iop_rgblevels_gui_data_t, ptr %41, i32 0, i32 11
  %43 = load float, ptr %42, align 8, !tbaa !50
  %44 = load ptr, ptr %14, align 8, !tbaa !37
  %45 = getelementptr inbounds nuw %struct.dt_iop_rgblevels_gui_data_t, ptr %44, i32 0, i32 12
  %46 = load float, ptr %45, align 4, !tbaa !48
  %47 = fsub reassoc nsz arcp contract afn float %43, %46
  %48 = call reassoc nsz arcp contract afn float @llvm.fabs.f32(float %47)
  %49 = fcmp reassoc nsz arcp contract afn ogt float %48, 1.000000e+00
  br i1 %49, label %50, label %131

50:                                               ; preds = %40
  %51 = load ptr, ptr %14, align 8, !tbaa !37
  %52 = getelementptr inbounds nuw %struct.dt_iop_rgblevels_gui_data_t, ptr %51, i32 0, i32 9
  %53 = load float, ptr %52, align 8, !tbaa !49
  %54 = load ptr, ptr %14, align 8, !tbaa !37
  %55 = getelementptr inbounds nuw %struct.dt_iop_rgblevels_gui_data_t, ptr %54, i32 0, i32 13
  %56 = getelementptr inbounds [4 x float], ptr %55, i64 0, i64 0
  store float %53, ptr %56, align 8, !tbaa !15
  %57 = load ptr, ptr %14, align 8, !tbaa !37
  %58 = getelementptr inbounds nuw %struct.dt_iop_rgblevels_gui_data_t, ptr %57, i32 0, i32 11
  %59 = load float, ptr %58, align 8, !tbaa !50
  %60 = load ptr, ptr %14, align 8, !tbaa !37
  %61 = getelementptr inbounds nuw %struct.dt_iop_rgblevels_gui_data_t, ptr %60, i32 0, i32 13
  %62 = getelementptr inbounds [4 x float], ptr %61, i64 0, i64 1
  store float %59, ptr %62, align 4, !tbaa !15
  %63 = load ptr, ptr %14, align 8, !tbaa !37
  %64 = getelementptr inbounds nuw %struct.dt_iop_rgblevels_gui_data_t, ptr %63, i32 0, i32 10
  %65 = load float, ptr %64, align 4, !tbaa !47
  %66 = load ptr, ptr %14, align 8, !tbaa !37
  %67 = getelementptr inbounds nuw %struct.dt_iop_rgblevels_gui_data_t, ptr %66, i32 0, i32 13
  %68 = getelementptr inbounds [4 x float], ptr %67, i64 0, i64 2
  store float %65, ptr %68, align 8, !tbaa !15
  %69 = load ptr, ptr %14, align 8, !tbaa !37
  %70 = getelementptr inbounds nuw %struct.dt_iop_rgblevels_gui_data_t, ptr %69, i32 0, i32 12
  %71 = load float, ptr %70, align 4, !tbaa !48
  %72 = load ptr, ptr %14, align 8, !tbaa !37
  %73 = getelementptr inbounds nuw %struct.dt_iop_rgblevels_gui_data_t, ptr %72, i32 0, i32 13
  %74 = getelementptr inbounds [4 x float], ptr %73, i64 0, i64 3
  store float %71, ptr %74, align 4, !tbaa !15
  %75 = load ptr, ptr getelementptr inbounds nuw (%struct.darktable_t, ptr @darktable, i32 0, i32 9), align 8, !tbaa !51
  %76 = load ptr, ptr %14, align 8, !tbaa !37
  %77 = getelementptr inbounds nuw %struct.dt_iop_rgblevels_gui_data_t, ptr %76, i32 0, i32 13
  %78 = getelementptr inbounds [4 x float], ptr %77, i64 0, i64 0
  %79 = call i32 @dt_dev_distort_backtransform(ptr noundef %75, ptr noundef %78, i64 noundef 2)
  %80 = load ptr, ptr getelementptr inbounds nuw (%struct.darktable_t, ptr @darktable, i32 0, i32 9), align 8, !tbaa !51
  %81 = getelementptr inbounds nuw %struct.dt_develop_t, ptr %80, i32 0, i32 16
  %82 = load ptr, ptr %81, align 16, !tbaa !84
  %83 = getelementptr inbounds nuw %struct.dt_dev_pixelpipe_t, ptr %82, i32 0, i32 4
  %84 = load i32, ptr %83, align 16, !tbaa !110
  %85 = sitofp i32 %84 to float
  %86 = load ptr, ptr %14, align 8, !tbaa !37
  %87 = getelementptr inbounds nuw %struct.dt_iop_rgblevels_gui_data_t, ptr %86, i32 0, i32 13
  %88 = getelementptr inbounds [4 x float], ptr %87, i64 0, i64 0
  %89 = load float, ptr %88, align 8, !tbaa !15
  %90 = fdiv reassoc nsz arcp contract afn float %89, %85
  store float %90, ptr %88, align 8, !tbaa !15
  %91 = load ptr, ptr getelementptr inbounds nuw (%struct.darktable_t, ptr @darktable, i32 0, i32 9), align 8, !tbaa !51
  %92 = getelementptr inbounds nuw %struct.dt_develop_t, ptr %91, i32 0, i32 16
  %93 = load ptr, ptr %92, align 16, !tbaa !84
  %94 = getelementptr inbounds nuw %struct.dt_dev_pixelpipe_t, ptr %93, i32 0, i32 5
  %95 = load i32, ptr %94, align 4, !tbaa !119
  %96 = sitofp i32 %95 to float
  %97 = load ptr, ptr %14, align 8, !tbaa !37
  %98 = getelementptr inbounds nuw %struct.dt_iop_rgblevels_gui_data_t, ptr %97, i32 0, i32 13
  %99 = getelementptr inbounds [4 x float], ptr %98, i64 0, i64 1
  %100 = load float, ptr %99, align 4, !tbaa !15
  %101 = fdiv reassoc nsz arcp contract afn float %100, %96
  store float %101, ptr %99, align 4, !tbaa !15
  %102 = load ptr, ptr getelementptr inbounds nuw (%struct.darktable_t, ptr @darktable, i32 0, i32 9), align 8, !tbaa !51
  %103 = getelementptr inbounds nuw %struct.dt_develop_t, ptr %102, i32 0, i32 16
  %104 = load ptr, ptr %103, align 16, !tbaa !84
  %105 = getelementptr inbounds nuw %struct.dt_dev_pixelpipe_t, ptr %104, i32 0, i32 4
  %106 = load i32, ptr %105, align 16, !tbaa !110
  %107 = sitofp i32 %106 to float
  %108 = load ptr, ptr %14, align 8, !tbaa !37
  %109 = getelementptr inbounds nuw %struct.dt_iop_rgblevels_gui_data_t, ptr %108, i32 0, i32 13
  %110 = getelementptr inbounds [4 x float], ptr %109, i64 0, i64 2
  %111 = load float, ptr %110, align 8, !tbaa !15
  %112 = fdiv reassoc nsz arcp contract afn float %111, %107
  store float %112, ptr %110, align 8, !tbaa !15
  %113 = load ptr, ptr getelementptr inbounds nuw (%struct.darktable_t, ptr @darktable, i32 0, i32 9), align 8, !tbaa !51
  %114 = getelementptr inbounds nuw %struct.dt_develop_t, ptr %113, i32 0, i32 16
  %115 = load ptr, ptr %114, align 16, !tbaa !84
  %116 = getelementptr inbounds nuw %struct.dt_dev_pixelpipe_t, ptr %115, i32 0, i32 5
  %117 = load i32, ptr %116, align 4, !tbaa !119
  %118 = sitofp i32 %117 to float
  %119 = load ptr, ptr %14, align 8, !tbaa !37
  %120 = getelementptr inbounds nuw %struct.dt_iop_rgblevels_gui_data_t, ptr %119, i32 0, i32 13
  %121 = getelementptr inbounds [4 x float], ptr %120, i64 0, i64 3
  %122 = load float, ptr %121, align 4, !tbaa !15
  %123 = fdiv reassoc nsz arcp contract afn float %122, %118
  store float %123, ptr %121, align 4, !tbaa !15
  %124 = load ptr, ptr %14, align 8, !tbaa !37
  %125 = getelementptr inbounds nuw %struct.dt_iop_rgblevels_gui_data_t, ptr %124, i32 0, i32 14
  store i32 0, ptr %125, align 8, !tbaa !44
  %126 = load ptr, ptr %14, align 8, !tbaa !37
  %127 = getelementptr inbounds nuw %struct.dt_iop_rgblevels_gui_data_t, ptr %126, i32 0, i32 7
  store i32 1, ptr %127, align 8, !tbaa !120
  %128 = load ptr, ptr %7, align 8, !tbaa !6
  %129 = getelementptr inbounds nuw %struct.dt_iop_module_t, ptr %128, i32 0, i32 77
  %130 = load ptr, ptr %129, align 8, !tbaa !46
  call void @dt_dev_reprocess_all(ptr noundef %130)
  br label %134

131:                                              ; preds = %40, %30
  %132 = load ptr, ptr %14, align 8, !tbaa !37
  %133 = getelementptr inbounds nuw %struct.dt_iop_rgblevels_gui_data_t, ptr %132, i32 0, i32 14
  store i32 0, ptr %133, align 8, !tbaa !44
  br label %134

134:                                              ; preds = %131, %50
  store i32 1, ptr %13, align 4, !tbaa !19
  br label %135

135:                                              ; preds = %134, %25, %20, %6
  %136 = load i32, ptr %13, align 4, !tbaa !19
  call void @llvm.lifetime.end.p0(i64 8, ptr %14) #13
  call void @llvm.lifetime.end.p0(i64 4, ptr %13) #13
  ret i32 %136
}