; Function Attrs: nounwind uwtable
define range(i32 0, 2) i32 @button_released(ptr noundef readonly captures(none) %0, float noundef %1, float noundef %2, i32 noundef %3, i32 noundef %4, float noundef %5) local_unnamed_addr #1 {
  %7 = getelementptr inbounds nuw i8, ptr %0, i64 704
  %8 = load ptr, ptr %7, align 16, !tbaa !6
  %.not = icmp eq ptr %8, null
  br i1 %.not, label %61, label %9

9:                                                ; preds = %6
  %10 = getelementptr inbounds nuw i8, ptr %8, i64 100
  %11 = load i32, ptr %10, align 4, !tbaa !27
  %.not26 = icmp eq i32 %11, 0
  br i1 %.not26, label %61, label %12

12:                                               ; preds = %9
  %13 = getelementptr inbounds nuw i8, ptr %0, i64 672
  %14 = load i32, ptr %13, align 16, !tbaa !35
  %.not27 = icmp eq i32 %14, 0
  br i1 %.not27, label %61, label %15

15:                                               ; preds = %12
  %16 = getelementptr inbounds nuw i8, ptr %8, i64 104
  %17 = load float, ptr %16, align 8, !tbaa !40
  %18 = getelementptr inbounds nuw i8, ptr %8, i64 108
  %19 = load float, ptr %18, align 4, !tbaa !38
  %20 = fsub reassoc nsz arcp contract afn float %17, %19
  %21 = tail call reassoc nsz arcp contract afn float @llvm.fabs.f32(float %20)
  %22 = fcmp reassoc nsz arcp contract afn ogt float %21, 1.000000e+00
  br i1 %22, label %23, label %59

23:                                               ; preds = %15
  %24 = getelementptr inbounds nuw i8, ptr %8, i64 112
  %25 = load float, ptr %24, align 8, !tbaa !41
  %26 = getelementptr inbounds nuw i8, ptr %8, i64 116
  %27 = load float, ptr %26, align 4, !tbaa !39
  %28 = fsub reassoc nsz arcp contract afn float %25, %27
  %29 = tail call reassoc nsz arcp contract afn float @llvm.fabs.f32(float %28)
  %30 = fcmp reassoc nsz arcp contract afn ogt float %29, 1.000000e+00
  br i1 %30, label %31, label %59

31:                                               ; preds = %23
  %32 = getelementptr inbounds nuw i8, ptr %8, i64 120
  store float %17, ptr %32, align 8, !tbaa !37
  %33 = getelementptr inbounds nuw i8, ptr %8, i64 124
  store float %25, ptr %33, align 4, !tbaa !37
  %34 = getelementptr inbounds nuw i8, ptr %8, i64 128
  store float %19, ptr %34, align 8, !tbaa !37
  %35 = getelementptr inbounds nuw i8, ptr %8, i64 132
  store float %27, ptr %35, align 4, !tbaa !37
  %36 = load ptr, ptr getelementptr inbounds nuw (i8, ptr @darktable, i64 64), align 8, !tbaa !42
  %37 = tail call i32 @dt_dev_distort_backtransform(ptr noundef %36, ptr noundef nonnull %32, i64 noundef 2) #21
  %38 = load ptr, ptr getelementptr inbounds nuw (i8, ptr @darktable, i64 64), align 8, !tbaa !42
  %39 = getelementptr inbounds nuw i8, ptr %38, i64 96
  %40 = load ptr, ptr %39, align 16, !tbaa !75
  %41 = getelementptr inbounds nuw i8, ptr %40, i64 144
  %42 = load i32, ptr %41, align 16, !tbaa !102
  %43 = sitofp i32 %42 to float
  %44 = load float, ptr %32, align 8, !tbaa !37
  %45 = fdiv reassoc nsz arcp contract afn float %44, %43
  store float %45, ptr %32, align 8, !tbaa !37
  %46 = getelementptr inbounds nuw i8, ptr %40, i64 148
  %47 = load i32, ptr %46, align 4, !tbaa !111
  %48 = sitofp i32 %47 to float
  %49 = load float, ptr %33, align 4, !tbaa !37
  %50 = fdiv reassoc nsz arcp contract afn float %49, %48
  store float %50, ptr %33, align 4, !tbaa !37
  %51 = load float, ptr %34, align 8, !tbaa !37
  %52 = fdiv reassoc nsz arcp contract afn float %51, %43
  store float %52, ptr %34, align 8, !tbaa !37
  %53 = load float, ptr %35, align 4, !tbaa !37
  %54 = fdiv reassoc nsz arcp contract afn float %53, %48
  store float %54, ptr %35, align 4, !tbaa !37
  %55 = getelementptr inbounds nuw i8, ptr %8, i64 136
  store i32 0, ptr %55, align 8, !tbaa !34
  %56 = getelementptr inbounds nuw i8, ptr %8, i64 96
  store i32 1, ptr %56, align 8, !tbaa !112
  %57 = getelementptr inbounds nuw i8, ptr %0, i64 664
  %58 = load ptr, ptr %57, align 8, !tbaa !36
  tail call void @dt_dev_reprocess_all(ptr noundef %58) #21
  br label %61

59:                                               ; preds = %23, %15
  %60 = getelementptr inbounds nuw i8, ptr %8, i64 136
  store i32 0, ptr %60, align 8, !tbaa !34
  br label %61

61:                                               ; preds = %31, %59, %12, %9, %6
  %.0 = phi i32 [ 0, %12 ], [ 0, %9 ], [ 0, %6 ], [ 1, %59 ], [ 1, %31 ]
  ret i32 %.0
}